; Function Attrs: mustprogress nofree nounwind willreturn memory(readwrite, inaccessiblemem: none) uwtable
define internal range(i32 0, 2) i32 @H5O__attr_exists_cb(ptr nocapture readnone %0, ptr nocapture noundef readonly %1, i32 %2, ptr nocapture readnone %3, ptr nocapture noundef readonly %4) #4 {
  %6 = getelementptr inbounds i8, ptr %1, i64 24
  %7 = load ptr, ptr %6, align 8
  %8 = getelementptr inbounds i8, ptr %7, i64 96
  %9 = load ptr, ptr %8, align 8
  %10 = getelementptr inbounds i8, ptr %9, i64 8
  %11 = load ptr, ptr %10, align 8
  %12 = load ptr, ptr %4, align 8
  %13 = tail call i32 @strcmp(ptr noundef nonnull dereferenceable(1) %11, ptr noundef nonnull dereferenceable(1) %12) #11
  %14 = icmp eq i32 %13, 0
  br i1 %14, label %15, label %18

15:                                               ; preds = %5
  %16 = getelementptr inbounds i8, ptr %4, i64 8
  %17 = load ptr, ptr %16, align 8
  store i8 1, ptr %17, align 1
  br label %18

18:                                               ; preds = %15, %5
  %.0 = phi i32 [ 1, %15 ], [ 0, %5 ]
  ret i32 %.0
}